; Function Attrs: nounwind uwtable
define hidden void @dom_document_convert_to_modern(ptr noundef writeonly captures(none) initializes((24, 32)) %0, ptr noundef readonly captures(none) %1) local_unnamed_addr #0 {
  %3 = tail call ptr @php_dom_private_data_create() #12
  %4 = tail call ptr @php_dom_ns_mapper_from_private(ptr noundef %3) #12
  %5 = tail call ptr @php_dom_libxml_private_data_header(ptr noundef %3) #12
  %6 = getelementptr inbounds nuw i8, ptr %0, i64 24
  store ptr %5, ptr %6, align 8, !tbaa !73
  %7 = getelementptr inbounds nuw i8, ptr %1, i64 24
  %8 = load ptr, ptr %7, align 8, !tbaa !4
  %.not6.i = icmp eq ptr %8, null
  br i1 %.not6.i, label %dom_mark_namespaces_as_attributes_too.exit, label %.lr.ph.i

.lr.ph.i:                                         ; preds = %2, %.lr.ph.i.backedge
  %.07.i = phi ptr [ %.07.i.be, %.lr.ph.i.backedge ], [ %8, %2 ]
  %9 = getelementptr inbounds nuw i8, ptr %.07.i, i64 8
  %10 = load i32, ptr %9, align 8, !tbaa !16
  %11 = icmp eq i32 %10, 1
  br i1 %11, label %12, label %.thread.i

12:                                               ; preds = %.lr.ph.i
  tail call void @php_dom_ns_compat_mark_attribute_list(ptr noundef %4, ptr noundef nonnull %.07.i) #12
  %.pr.i = load i32, ptr %9, align 8, !tbaa !16
  %13 = icmp eq i32 %.pr.i, 1
  br i1 %13, label %14, label %.thread.i

14:                                               ; preds = %12
  %15 = getelementptr inbounds nuw i8, ptr %.07.i, i64 24
  %16 = load ptr, ptr %15, align 8, !tbaa !20
  %.not.i.i = icmp eq ptr %16, null
  br i1 %.not.i.i, label %.thread.i, label %.lr.ph.i.backedge

.thread.i:                                        ; preds = %14, %12, %.lr.ph.i
  %17 = getelementptr inbounds nuw i8, ptr %.07.i, i64 48
  %18 = load ptr, ptr %17, align 8, !tbaa !21
  %.not17.i.i = icmp eq ptr %18, null
  br i1 %.not17.i.i, label %.preheader.i, label %.lr.ph.i.backedge

.lr.ph.i.backedge:                                ; preds = %22, %.thread.i, %14
  %.07.i.be = phi ptr [ %16, %14 ], [ %18, %.thread.i ], [ %24, %22 ]
  br label %.lr.ph.i

.preheader.i:                                     ; preds = %.thread.i, %22
  %.012.i.i = phi ptr [ %20, %22 ], [ %.07.i, %.thread.i ]
  %19 = getelementptr inbounds nuw i8, ptr %.012.i.i, i64 40
  %20 = load ptr, ptr %19, align 8, !tbaa !22
  %21 = icmp eq ptr %20, null
  br i1 %21, label %dom_mark_namespaces_as_attributes_too.exit, label %22

22:                                               ; preds = %.preheader.i
  %23 = getelementptr inbounds nuw i8, ptr %20, i64 48
  %24 = load ptr, ptr %23, align 8, !tbaa !21
  %25 = icmp eq ptr %24, null
  br i1 %25, label %.preheader.i, label %.lr.ph.i.backedge

dom_mark_namespaces_as_attributes_too.exit:       ; preds = %.preheader.i, %2
  ret void
}